; Function Attrs: nounwind uwtable
define ptr @l_Lake_instMonadTask__lake___lambda__4(ptr noundef %0, ptr noundef %1) #0 {
  %3 = tail call ptr @lean_apply_1(ptr noundef %0, ptr noundef nonnull inttoptr (i64 1 to ptr)) #4
  %4 = load ptr, ptr @l_Task_Priority_default, align 8, !tbaa !4
  %5 = ptrtoint ptr %4 to i64
  %6 = lshr i64 %5, 1
  %7 = trunc i64 %6 to i32
  %8 = tail call ptr @lean_task_map_core(ptr noundef %1, ptr noundef %3, i32 noundef %7, i1 noundef zeroext false, i1 noundef zeroext false) #4
  ret ptr %8
}